; ModuleID = '31/556.c'
source_filename = "31/556.c"
target datalayout = "e-m:e-p270:32:32-p271:32:32-p272:64:64-i64:64-f80:128-n8:16:32:64-S128"
target triple = "x86_64-pc-linux-gnu"

%struct.student = type { [100 x i8], [100 x i8], i8, i32, [100 x i8], [100 x i8], %struct.student* }

@.str = private unnamed_addr constant [3 x i8] c"%s\00", align 1
@k = common dso_local global [1000 x %struct.student] zeroinitializer, align 16
@.str.1 = private unnamed_addr constant [4 x i8] c"end\00", align 1
@.str.2 = private unnamed_addr constant [16 x i8] c" %s %c %d %s %s\00", align 1
@.str.3 = private unnamed_addr constant [19 x i8] c"%s %s %c %d %s %s\0A\00", align 1
@n = common dso_local global i32 0, align 4

; Function Attrs: noinline nounwind uwtable
define dso_local i32 @main() #0 {
  %1 = alloca i32, align 4
  %2 = alloca i32, align 4
  %3 = alloca %struct.student*, align 8
  %4 = alloca %struct.student*, align 8
  store i32 0, i32* %1, align 4
  store i32 0, i32* %2, align 4
  br label %5

5:                                                ; preds = %65, %0
  %6 = load i32, i32* %2, align 4
  %7 = sext i32 %6 to i64
  %8 = getelementptr inbounds [1000 x %struct.student], [1000 x %struct.student]* @k, i64 0, i64 %7
  %9 = getelementptr inbounds %struct.student, %struct.student* %8, i32 0, i32 0
  %10 = getelementptr inbounds [100 x i8], [100 x i8]* %9, i64 0, i64 0
  %11 = call i32 (i8*, ...) @__isoc99_scanf(i8* getelementptr inbounds ([3 x i8], [3 x i8]* @.str, i64 0, i64 0), i8* %10)
  %12 = load i32, i32* %2, align 4
  %13 = sext i32 %12 to i64
  %14 = getelementptr inbounds [1000 x %struct.student], [1000 x %struct.student]* @k, i64 0, i64 %13
  %15 = getelementptr inbounds %struct.student, %struct.student* %14, i32 0, i32 0
  %16 = getelementptr inbounds [100 x i8], [100 x i8]* %15, i64 0, i64 0
  %17 = call i32 @strcmp(i8* %16, i8* getelementptr inbounds ([4 x i8], [4 x i8]* @.str.1, i64 0, i64 0)) #3
  %18 = icmp eq i32 %17, 0
  br i1 %18, label %19, label %20

19:                                               ; preds = %5
  br label %68

20:                                               ; preds = %5
  %21 = load i32, i32* %2, align 4
  %22 = sext i32 %21 to i64
  %23 = getelementptr inbounds [1000 x %struct.student], [1000 x %struct.student]* @k, i64 0, i64 %22
  %24 = getelementptr inbounds %struct.student, %struct.student* %23, i32 0, i32 1
  %25 = getelementptr inbounds [100 x i8], [100 x i8]* %24, i64 0, i64 0
  %26 = load i32, i32* %2, align 4
  %27 = sext i32 %26 to i64
  %28 = getelementptr inbounds [1000 x %struct.student], [1000 x %struct.student]* @k, i64 0, i64 %27
  %29 = getelementptr inbounds %struct.student, %struct.student* %28, i32 0, i32 2
  %30 = load i32, i32* %2, align 4
  %31 = sext i32 %30 to i64
  %32 = getelementptr inbounds [1000 x %struct.student], [1000 x %struct.student]* @k, i64 0, i64 %31
  %33 = getelementptr inbounds %struct.student, %struct.student* %32, i32 0, i32 3
  %34 = load i32, i32* %2, align 4
  %35 = sext i32 %34 to i64
  %36 = getelementptr inbounds [1000 x %struct.student], [1000 x %struct.student]* @k, i64 0, i64 %35
  %37 = getelementptr inbounds %struct.student, %struct.student* %36, i32 0, i32 4
  %38 = getelementptr inbounds [100 x i8], [100 x i8]* %37, i64 0, i64 0
  %39 = load i32, i32* %2, align 4
  %40 = sext i32 %39 to i64
  %41 = getelementptr inbounds [1000 x %struct.student], [1000 x %struct.student]* @k, i64 0, i64 %40
  %42 = getelementptr inbounds %struct.student, %struct.student* %41, i32 0, i32 5
  %43 = getelementptr inbounds [100 x i8], [100 x i8]* %42, i64 0, i64 0
  %44 = call i32 (i8*, ...) @__isoc99_scanf(i8* getelementptr inbounds ([16 x i8], [16 x i8]* @.str.2, i64 0, i64 0), i8* %25, i8* %29, i32* %33, i8* %38, i8* %43)
  %45 = load i32, i32* %2, align 4
  %46 = icmp sgt i32 %45, 0
  br i1 %46, label %47, label %56

47:                                               ; preds = %20
  %48 = load i32, i32* %2, align 4
  %49 = sub nsw i32 %48, 1
  %50 = sext i32 %49 to i64
  %51 = getelementptr inbounds [1000 x %struct.student], [1000 x %struct.student]* @k, i64 0, i64 %50
  %52 = load i32, i32* %2, align 4
  %53 = sext i32 %52 to i64
  %54 = getelementptr inbounds [1000 x %struct.student], [1000 x %struct.student]* @k, i64 0, i64 %53
  %55 = getelementptr inbounds %struct.student, %struct.student* %54, i32 0, i32 6
  store %struct.student* %51, %struct.student** %55, align 8
  br label %56

56:                                               ; preds = %47, %20
  %57 = load i32, i32* %2, align 4
  %58 = icmp eq i32 %57, 0
  br i1 %58, label %59, label %64

59:                                               ; preds = %56
  %60 = load i32, i32* %2, align 4
  %61 = sext i32 %60 to i64
  %62 = getelementptr inbounds [1000 x %struct.student], [1000 x %struct.student]* @k, i64 0, i64 %61
  %63 = getelementptr inbounds %struct.student, %struct.student* %62, i32 0, i32 6
  store %struct.student* null, %struct.student** %63, align 8
  br label %64

64:                                               ; preds = %59, %56
  br label %65

65:                                               ; preds = %64
  %66 = load i32, i32* %2, align 4
  %67 = add nsw i32 %66, 1
  store i32 %67, i32* %2, align 4
  br label %5

68:                                               ; preds = %19
  %69 = load i32, i32* %2, align 4
  %70 = sub nsw i32 %69, 1
  %71 = sext i32 %70 to i64
  %72 = getelementptr inbounds [1000 x %struct.student], [1000 x %struct.student]* @k, i64 0, i64 %71
  store %struct.student* %72, %struct.student** %3, align 8
  %73 = load %struct.student*, %struct.student** %3, align 8
  store %struct.student* %73, %struct.student** %4, align 8
  br label %74

74:                                               ; preds = %98, %68
  %75 = load %struct.student*, %struct.student** %4, align 8
  %76 = getelementptr inbounds %struct.student, %struct.student* %75, i32 0, i32 0
  %77 = getelementptr inbounds [100 x i8], [100 x i8]* %76, i64 0, i64 0
  %78 = load %struct.student*, %struct.student** %4, align 8
  %79 = getelementptr inbounds %struct.student, %struct.student* %78, i32 0, i32 1
  %80 = getelementptr inbounds [100 x i8], [100 x i8]* %79, i64 0, i64 0
  %81 = load %struct.student*, %struct.student** %4, align 8
  %82 = getelementptr inbounds %struct.student, %struct.student* %81, i32 0, i32 2
  %83 = load i8, i8* %82, align 8
  %84 = sext i8 %83 to i32
  %85 = load %struct.student*, %struct.student** %4, align 8
  %86 = getelementptr inbounds %struct.student, %struct.student* %85, i32 0, i32 3
  %87 = load i32, i32* %86, align 4
  %88 = load %struct.student*, %struct.student** %4, align 8
  %89 = getelementptr inbounds %struct.student, %struct.student* %88, i32 0, i32 4
  %90 = getelementptr inbounds [100 x i8], [100 x i8]* %89, i64 0, i64 0
  %91 = load %struct.student*, %struct.student** %4, align 8
  %92 = getelementptr inbounds %struct.student, %struct.student* %91, i32 0, i32 5
  %93 = getelementptr inbounds [100 x i8], [100 x i8]* %92, i64 0, i64 0
  %94 = call i32 (i8*, ...) @printf(i8* getelementptr inbounds ([19 x i8], [19 x i8]* @.str.3, i64 0, i64 0), i8* %77, i8* %80, i32 %84, i32 %87, i8* %90, i8* %93)
  %95 = load %struct.student*, %struct.student** %4, align 8
  %96 = getelementptr inbounds %struct.student, %struct.student* %95, i32 0, i32 6
  %97 = load %struct.student*, %struct.student** %96, align 8
  store %struct.student* %97, %struct.student** %4, align 8
  br label %98

98:                                               ; preds = %74
  %99 = load %struct.student*, %struct.student** %4, align 8
  %100 = icmp ne %struct.student* %99, null
  br i1 %100, label %74, label %101

101:                                              ; preds = %98
  ret i32 0
}

declare dso_local i32 @__isoc99_scanf(i8*, ...) #1

; Function Attrs: nounwind readonly
declare dso_local i32 @strcmp(i8*, i8*) #2

declare dso_local i32 @printf(i8*, ...) #1


!llvm.module.flags = !{!0}
!llvm.ident = !{!1}

!0 = !{i32 1, !"wchar_size", i32 4}
!1 = !{!"clang version 10.0.0-4ubuntu1 "}
